target datalayout = "e-m:e-p270:32:32-p271:32:32-p272:64:64-i64:64-i128:128-f80:128-n8:16:32:64-S128"
target triple = "x86_64-pc-linux-gnu"

%struct.timeval = type { i64, i64 }
%struct.event = type { %struct.event_callback, %union.anon.1, i32, ptr, %union.anon.3, i16, i16, %struct.timeval }
%struct.event_callback = type { %struct.anon.0, i16, i8, i8, %union.anon, ptr }
%struct.anon.0 = type { ptr, ptr }
%union.anon = type { ptr }
%union.anon.1 = type { %struct.anon.2 }
%struct.anon.2 = type { ptr, ptr }
%union.anon.3 = type { %struct.anon.4 }
%struct.anon.4 = type { %struct.anon.5, %struct.timeval }
%struct.anon.5 = type { ptr, ptr }
%struct.conn = type { ptr, i32, i8, i8, i8, i8, i8, i8, i8, i8, ptr, i32, i32, i32, %struct.event, i16, i16, ptr, ptr, i32, i32, ptr, ptr, ptr, i32, ptr, i32, i32, i32, i32, i32, i32, i32, %struct.sockaddr_in6, i32, i8, %struct.anon.9, %union.protocol_binary_request_header, i64, i64, i16, i32, i32, ptr, ptr, ptr, ptr, ptr, ptr }
%struct.sockaddr_in6 = type { i16, i16, i32, %struct.in6_addr, i32 }
%struct.in6_addr = type { %union.anon.8 }
%union.anon.8 = type { [4 x i32] }
%struct.anon.9 = type { ptr, i64, i64 }
%union.protocol_binary_request_header = type { %struct.anon.10 }
%struct.anon.10 = type { i8, i8, i16, i8, i8, i16, i32, i32, i64 }

@conns = dso_local global ptr null, align 8
@max_fds = internal global i32 0, align 4

; Function Attrs: nounwind uwtable
define dso_local void @conn_close_all() #0 {
  %1 = alloca i32, align 4
  call void @llvm.lifetime.start.p0(i64 4, ptr %1) #15
  store i32 0, ptr %1, align 4, !tbaa !8
  br label %2

2:                                                ; preds = %29, %0
  %3 = load i32, ptr %1, align 4, !tbaa !8
  %4 = load i32, ptr @max_fds, align 4, !tbaa !8
  %5 = icmp slt i32 %3, %4
  br i1 %5, label %6, label %32

6:                                                ; preds = %2
  %7 = load ptr, ptr @conns, align 8, !tbaa !107
  %8 = load i32, ptr %1, align 4, !tbaa !8
  %9 = sext i32 %8 to i64
  %10 = getelementptr inbounds ptr, ptr %7, i64 %9
  %11 = load ptr, ptr %10, align 8, !tbaa !10
  %12 = icmp ne ptr %11, null
  br i1 %12, label %13, label %28

13:                                               ; preds = %6
  %14 = load ptr, ptr @conns, align 8, !tbaa !107
  %15 = load i32, ptr %1, align 4, !tbaa !8
  %16 = sext i32 %15 to i64
  %17 = getelementptr inbounds ptr, ptr %14, i64 %16
  %18 = load ptr, ptr %17, align 8, !tbaa !10
  %19 = getelementptr inbounds nuw %struct.conn, ptr %18, i32 0, i32 11
  %20 = load i32, ptr %19, align 8, !tbaa !50
  %21 = icmp ne i32 %20, 10
  br i1 %21, label %22, label %28

22:                                               ; preds = %13
  %23 = load ptr, ptr @conns, align 8, !tbaa !107
  %24 = load i32, ptr %1, align 4, !tbaa !8
  %25 = sext i32 %24 to i64
  %26 = getelementptr inbounds ptr, ptr %23, i64 %25
  %27 = load ptr, ptr %26, align 8, !tbaa !10
  call void @conn_close(ptr noundef %27)
  br label %28

28:                                               ; preds = %22, %13, %6
  br label %29

29:                                               ; preds = %28
  %30 = load i32, ptr %1, align 4, !tbaa !8
  %31 = add nsw i32 %30, 1
  store i32 %31, ptr %1, align 4, !tbaa !8
  br label %2, !llvm.loop !144

32:                                               ; preds = %2
  call void @llvm.lifetime.end.p0(i64 4, ptr %1) #15
  ret void
}