; Function Attrs: nounwind uwtable
define dso_local void @conn_close_all() local_unnamed_addr #1 {
  %1 = load i32, ptr @max_fds, align 4, !tbaa !8
  %2 = icmp sgt i32 %1, 0
  br i1 %2, label %.lr.ph.preheader, label %._crit_edge

.lr.ph.preheader:                                 ; preds = %0
  %.pre9 = load ptr, ptr @conns, align 8, !tbaa !137
  br label %.lr.ph

.lr.ph:                                           ; preds = %.lr.ph.preheader, %11
  %3 = phi i32 [ %1, %.lr.ph.preheader ], [ %12, %11 ]
  %4 = phi ptr [ %.pre9, %.lr.ph.preheader ], [ %13, %11 ]
  %indvars.iv = phi i64 [ 0, %.lr.ph.preheader ], [ %indvars.iv.next, %11 ]
  %5 = getelementptr inbounds nuw ptr, ptr %4, i64 %indvars.iv
  %6 = load ptr, ptr %5, align 8, !tbaa !139
  %.not = icmp eq ptr %6, null
  br i1 %.not, label %11, label %7

7:                                                ; preds = %.lr.ph
  %8 = getelementptr inbounds nuw i8, ptr %6, i64 32
  %9 = load i32, ptr %8, align 8, !tbaa !48
  %.not6 = icmp eq i32 %9, 10
  br i1 %.not6, label %11, label %10

10:                                               ; preds = %7
  tail call fastcc void @conn_close(ptr noundef nonnull %6)
  %.pre = load ptr, ptr @conns, align 8, !tbaa !137
  %.pre10 = load i32, ptr @max_fds, align 4, !tbaa !8
  br label %11

11:                                               ; preds = %.lr.ph, %7, %10
  %12 = phi i32 [ %3, %.lr.ph ], [ %3, %7 ], [ %.pre10, %10 ]
  %13 = phi ptr [ %4, %.lr.ph ], [ %4, %7 ], [ %.pre, %10 ]
  %indvars.iv.next = add nuw nsw i64 %indvars.iv, 1
  %14 = sext i32 %12 to i64
  %15 = icmp slt i64 %indvars.iv.next, %14
  br i1 %15, label %.lr.ph, label %._crit_edge, !llvm.loop !158

._crit_edge:                                      ; preds = %11, %0
  ret void
}